; Function Attrs: mustprogress nofree nounwind willreturn memory(argmem: read) uwtable
define noundef zeroext i1 @_ZN3nix7isInDirESt17basic_string_viewIcSt11char_traitsIcEES3_(i64 %0, ptr nocapture readonly %1, i64 %2, ptr nocapture readonly %3) local_unnamed_addr #7 personality ptr @__gxx_personality_v0 {
  %.not21 = icmp eq i64 %0, 0
  br i1 %.not21, label %_ZSteqIcSt11char_traitsIcEEbSt17basic_string_viewIT_T0_ENSt15__type_identityIS5_E4typeE.exit.thread, label %_ZNSt11char_traitsIcE7compareEPKcS2_m.exit.i.i

_ZNSt11char_traitsIcE7compareEPKcS2_m.exit.i.i:   ; preds = %4
  %lhsc = load i8, ptr %1, align 1
  %5 = icmp eq i8 %lhsc, 47
  br i1 %5, label %_ZSteqIcSt11char_traitsIcEEbSt17basic_string_viewIT_T0_ENSt15__type_identityIS5_E4typeE.exit, label %_ZSteqIcSt11char_traitsIcEEbSt17basic_string_viewIT_T0_ENSt15__type_identityIS5_E4typeE.exit.thread

_ZSteqIcSt11char_traitsIcEEbSt17basic_string_viewIT_T0_ENSt15__type_identityIS5_E4typeE.exit: ; preds = %_ZNSt11char_traitsIcE7compareEPKcS2_m.exit.i.i
  %.sroa.speculated.i5 = tail call i64 @llvm.umin.i64(i64 %0, i64 %2)
  %.not20 = icmp ugt i64 %2, %0
  br i1 %.not20, label %_ZSteqIcSt11char_traitsIcEEbSt17basic_string_viewIT_T0_ENSt15__type_identityIS5_E4typeE.exit.thread, label %6

6:                                                ; preds = %_ZSteqIcSt11char_traitsIcEEbSt17basic_string_viewIT_T0_ENSt15__type_identityIS5_E4typeE.exit
  %7 = icmp eq i64 %2, 0
  br i1 %7, label %_ZSteqIcSt11char_traitsIcEEbSt17basic_string_viewIT_T0_ES5_.exit, label %_ZNSt11char_traitsIcE7compareEPKcS2_m.exit.i.i8

_ZNSt11char_traitsIcE7compareEPKcS2_m.exit.i.i8:  ; preds = %6
  %bcmp.i9 = tail call i32 @bcmp(ptr nonnull %1, ptr %3, i64 %.sroa.speculated.i5)
  %8 = icmp ne i32 %bcmp.i9, 0
  %9 = add i64 %2, 2
  %.not = icmp ugt i64 %9, %0
  %or.cond = select i1 %8, i1 true, i1 %.not
  br i1 %or.cond, label %_ZSteqIcSt11char_traitsIcEEbSt17basic_string_viewIT_T0_ENSt15__type_identityIS5_E4typeE.exit.thread, label %10

_ZSteqIcSt11char_traitsIcEEbSt17basic_string_viewIT_T0_ES5_.exit: ; preds = %6
  %.not.old = icmp eq i64 %0, 1
  br i1 %.not.old, label %_ZSteqIcSt11char_traitsIcEEbSt17basic_string_viewIT_T0_ENSt15__type_identityIS5_E4typeE.exit.thread, label %10

10:                                               ; preds = %_ZNSt11char_traitsIcE7compareEPKcS2_m.exit.i.i8, %_ZSteqIcSt11char_traitsIcEEbSt17basic_string_viewIT_T0_ES5_.exit
  %11 = getelementptr inbounds i8, ptr %1, i64 %2
  %12 = load i8, ptr %11, align 1
  %13 = icmp eq i8 %12, 47
  br label %_ZSteqIcSt11char_traitsIcEEbSt17basic_string_viewIT_T0_ENSt15__type_identityIS5_E4typeE.exit.thread

_ZSteqIcSt11char_traitsIcEEbSt17basic_string_viewIT_T0_ENSt15__type_identityIS5_E4typeE.exit.thread: ; preds = %_ZNSt11char_traitsIcE7compareEPKcS2_m.exit.i.i8, %_ZSteqIcSt11char_traitsIcEEbSt17basic_string_viewIT_T0_ENSt15__type_identityIS5_E4typeE.exit, %_ZNSt11char_traitsIcE7compareEPKcS2_m.exit.i.i, %4, %10, %_ZSteqIcSt11char_traitsIcEEbSt17basic_string_viewIT_T0_ES5_.exit
  %14 = phi i1 [ false, %_ZSteqIcSt11char_traitsIcEEbSt17basic_string_viewIT_T0_ES5_.exit ], [ %13, %10 ], [ false, %4 ], [ false, %_ZNSt11char_traitsIcE7compareEPKcS2_m.exit.i.i ], [ false, %_ZSteqIcSt11char_traitsIcEEbSt17basic_string_viewIT_T0_ENSt15__type_identityIS5_E4typeE.exit ], [ false, %_ZNSt11char_traitsIcE7compareEPKcS2_m.exit.i.i8 ]
  ret i1 %14
}